(lp0
V1fichier.com
p1
aValterupload.com
p2
aVcjoint.net
p3
aVdesfichiers.com
p4
aVdfichiers.com
p5
aVmegadl.fr
p6
aVmesfichiers.org
p7
aVpiecejointe.net
p8
aVpjointe.com
p9
aVtenvoi.com
p10
aVdl4free.com
p11
aV2shared.com
p12
aV4shared.com
p13
aValfafile.net
p14
aVbig4shared.com
p15
aVcatshare.net
p16
aVcbs.com
p17
aVclicknupload.me
p18
aVclicknupload.com
p19
aVclicknupload.link
p20
aVclicknupload.org
p21
aVdailymotion.com
p22
aVdatafilehost.com
p23
aVdatei.to
p24
aVdepositfiles.com
p25
aVdepositfiles.org
p26
aVdfiles.eu
p27
aVdfiles.ru
p28
aVdl.free.fr
p29
aVeasybytez.com
p30
aVextmatrix.com
p31
aVfaststore.org
p32
aVfile.al
p33
aVfilefactory.com
p34
aVfilerio.com
p35
aVfilerio.in
p36
aVfilesabc.com
p37
aVfilesmonster.com
p38
aVflashx.tv
p39
aVflashx.ws
p40
aVflashx.cc
p41
aVflashx.bz
p42
aVflashx.co
p43
aVflashx.pw
p44
aVgigapeta.com
p45
aVdocs.google.com
p46
aVdrive.google.com
p47
aVhitfile.net
p48
aVhulkshare.com
p49
aVicerbox.com
p50
aVinclouddrive.com
p51
aVisra.cloud
p52
aVkeep2share.cc
p53
aVk2s.cc
p54
aVkeep2s.cc
p55
aVk2share.cc
p56
aVload.to
p57
aVmediafire.com
p58
aVmega.co.nz
p59
aVmega.nz
p60
aVnitroflare.com
p61
aVnowvideo.club
p62
aVnowvideo.pw
p63
aVoboom.com
p64
aVopenload.co
p65
aVopenload.io
p66
aVoload.tv
p67
aVoload.info
p68
aVoload.stream
p69
aVoload.site
p70
aVoload.win
p71
aVoload.download
p72
aVoload.cloud
p73
aVoload.cc
p74
aVoload.icu
p75
aVoload.fun
p76
aVoload.live
p77
aVoload.space
p78
aVoladblock.services
p79
aVopenloads.co
p80
aVsky.fm
p81
aVradiotunes.com
p82
aVdi.fm
p83
aVclassicalradio.com
p84
aVjazzradio.com
p85
aVrapidgator.net
p86
aVrg.to
p87
aVrapidvideo.com
p88
aVrarefile.net
p89
aVreal-debrid.com
p90
aVredbunker.net
p91
aVredtube.com
p92
aVcanalplus.fr
p93
aVd8.tv
p94
aVc8.fr
p95
aVmycanal.fr
p96
aVrockfile.eu
p97
aVrockfile.co
p98
aVrutube.ru
p99
aVscribd.com
p100
aVsendspace.com
p101
aVshare-online.biz
p102
aVsolidfiles.com
p103
aVsoundcloud.com
p104
aVstreamango.com
p105
aVfruitstreams.com
p106
aVfruitadblock.net
p107
aVfruithosts.net
p108
aVstreamcherry.com
p109
aVthevideo.me
p110
aVthevideo.io
p111
aVtvad.me
p112
aVthevideo.website
p113
aVvev.io
p114
aVturbobit.net
p115
aVturbobit.cc
p116
aVturbo.to
p117
aVtusfiles.net
p118
aVulozto.net
p119
aVuloz.to
p120
aVulozto.sk
p121
aVunibytes.com
p122
aVuploadc.com
p123
aVuploadc.ch
p124
aVuploaded.net
p125
aVuploaded.to
p126
aVul.to
p127
aVupstore.net
p128
aVuptobox.com
p129
aVuptostream.com
p130
aVuserscloud.com
p131
aVvidlox.tv
p132
aVvidoza.net
p133
aVvimeo.com
p134
aVvk.com
p135
aVwipfiles.net
p136
aVworldbytez.com
p137
aVwupfile.com
p138
aVsalefiles.com
p139
aVyouporn.com
p140
aVyoutube.com
p141
aVyunfile.com
p142
aVfilemarkets.com
p143
aV5xpan.com
p144
aVdix3.com
p145
aVdfpan.com
p146
aVpwpan.com
p147
aVtadown.com
p148
aVzippyshare.com
p149
a.